; Function Attrs: mustprogress nounwind uwtable
define internal void @_ZN5clang4ento5check11LiveSymbols17_checkLiveSymbolsIN12_GLOBAL__N_113ErrnoModelingEEEvPvN4llvm18IntrusiveRefCntPtrIKNS0_12ProgramStateEEERNS0_12SymbolReaperE(ptr readnone captures(none) %0, ptr noundef readonly captures(none) %1, ptr noundef nonnull align 8 dereferenceable(160) %2) #1 align 2 {
  %4 = load ptr, ptr %1, align 8
  %.not.i.i = icmp eq ptr %4, null
  br i1 %.not.i.i, label %_ZN4llvm18IntrusiveRefCntPtrIKN5clang4ento12ProgramStateEEC2ERKS5_.exit, label %5

5:                                                ; preds = %3
  tail call void @_ZN5clang4ento18ProgramStateRetainEPKNS0_12ProgramStateE(ptr noundef nonnull %4) #15
  br label %_ZN4llvm18IntrusiveRefCntPtrIKN5clang4ento12ProgramStateEEC2ERKS5_.exit

_ZN4llvm18IntrusiveRefCntPtrIKN5clang4ento12ProgramStateEEC2ERKS5_.exit: ; preds = %3, %5
  %6 = tail call noundef ptr @_ZNK5clang4ento12ProgramState7FindGDMEPv(ptr noundef nonnull align 8 dereferenceable(48) %4, ptr noundef nonnull @_ZZN5clang4ento17ProgramStateTraitIN12_GLOBAL__N_111ErrnoRegionEE8GDMIndexEvE5Index) #15
  %.not.i.i.i = icmp eq ptr %6, null
  br i1 %.not.i.i.i, label %_ZN4llvm18IntrusiveRefCntPtrIKN5clang4ento12ProgramStateEED2Ev.exit, label %_ZNK5clang4ento12ProgramState3getIN12_GLOBAL__N_111ErrnoRegionEEENS0_17ProgramStateTraitIT_E9data_typeEv.exit.i

_ZNK5clang4ento12ProgramState3getIN12_GLOBAL__N_111ErrnoRegionEEENS0_17ProgramStateTraitIT_E9data_typeEv.exit.i: ; preds = %_ZN4llvm18IntrusiveRefCntPtrIKN5clang4ento12ProgramStateEEC2ERKS5_.exit
  %7 = load ptr, ptr %6, align 8
  %.not.i = icmp eq ptr %7, null
  br i1 %.not.i, label %_ZN4llvm18IntrusiveRefCntPtrIKN5clang4ento12ProgramStateEED2Ev.exit, label %8

8:                                                ; preds = %_ZNK5clang4ento12ProgramState3getIN12_GLOBAL__N_111ErrnoRegionEEENS0_17ProgramStateTraitIT_E9data_typeEv.exit.i
  tail call void @_ZN5clang4ento12SymbolReaper8markLiveEPKNS0_9MemRegionE(ptr noundef nonnull align 8 dereferenceable(160) %2, ptr noundef nonnull %7) #15
  br label %_ZN4llvm18IntrusiveRefCntPtrIKN5clang4ento12ProgramStateEED2Ev.exit

_ZN4llvm18IntrusiveRefCntPtrIKN5clang4ento12ProgramStateEED2Ev.exit: ; preds = %_ZN4llvm18IntrusiveRefCntPtrIKN5clang4ento12ProgramStateEEC2ERKS5_.exit, %_ZNK5clang4ento12ProgramState3getIN12_GLOBAL__N_111ErrnoRegionEEENS0_17ProgramStateTraitIT_E9data_typeEv.exit.i, %8
  tail call void @_ZN5clang4ento19ProgramStateReleaseEPKNS0_12ProgramStateE(ptr noundef nonnull %4) #15
  ret void
}